; Function Attrs: nounwind uwtable
define internal fastcc i32 @apply_case_fold3(ptr noundef readonly captures(none) %0, ptr noundef %1) unnamed_addr #0 {
  %3 = alloca i32, align 4
  %4 = alloca i32, align 4
  br label %5

5:                                                ; preds = %2, %25
  %.03810 = phi i32 [ 0, %2 ], [ %28, %25 ]
  %6 = sext i32 %.03810 to i64
  %7 = getelementptr inbounds i32, ptr @OnigUnicodeFolds3, i64 %6
  %8 = add nsw i32 %.03810, 3
  %9 = sext i32 %8 to i64
  %10 = getelementptr inbounds [72 x i32], ptr @OnigUnicodeFolds3, i64 0, i64 %9
  %11 = load i32, ptr %10, align 4, !tbaa !17
  %.not4765 = icmp sgt i32 %11, 0
  br i1 %.not4765, label %.lr.ph69, label %25

.lr.ph69:                                         ; preds = %5
  %12 = getelementptr inbounds nuw i8, ptr %7, i64 16
  %wide.trip.count85 = zext nneg i32 %11 to i64
  br label %13

13:                                               ; preds = %.lr.ph69, %._crit_edge
  %indvars.iv82 = phi i64 [ 0, %.lr.ph69 ], [ %indvars.iv.next83, %._crit_edge ]
  call void @llvm.lifetime.start.p0(i64 4, ptr nonnull %3) #10
  %14 = getelementptr inbounds nuw i32, ptr %12, i64 %indvars.iv82
  %15 = load i32, ptr %14, align 4, !tbaa !17
  store i32 %15, ptr %3, align 4, !tbaa !17
  %16 = call i32 %0(i32 noundef %15, ptr noundef nonnull %7, i32 noundef 3, ptr noundef %1) #10
  %.not = icmp eq i32 %16, 0
  br i1 %.not, label %.preheader, label %.thread87

.preheader:                                       ; preds = %13
  %.not71 = icmp eq i64 %indvars.iv82, 0
  br i1 %.not71, label %._crit_edge, label %.lr.ph

17:                                               ; preds = %22
  %indvars.iv.next = add nuw nsw i64 %indvars.iv, 1
  %exitcond.not = icmp eq i64 %indvars.iv.next, %indvars.iv82
  br i1 %exitcond.not, label %._crit_edge, label %.lr.ph, !llvm.loop !28

.lr.ph:                                           ; preds = %.preheader, %17
  %indvars.iv = phi i64 [ %indvars.iv.next, %17 ], [ 0, %.preheader ]
  call void @llvm.lifetime.start.p0(i64 4, ptr nonnull %4) #10
  %18 = getelementptr inbounds nuw i32, ptr %12, i64 %indvars.iv
  %19 = load i32, ptr %18, align 4, !tbaa !17
  store i32 %19, ptr %4, align 4, !tbaa !17
  %20 = load i32, ptr %3, align 4, !tbaa !17
  %21 = call i32 %0(i32 noundef %20, ptr noundef nonnull %4, i32 noundef 1, ptr noundef %1) #10
  %.not45 = icmp eq i32 %21, 0
  br i1 %.not45, label %22, label %.thread

.thread:                                          ; preds = %.lr.ph
  call void @llvm.lifetime.end.p0(i64 4, ptr nonnull %4) #10
  br label %.thread87

22:                                               ; preds = %.lr.ph
  %23 = load i32, ptr %4, align 4, !tbaa !17
  %24 = call i32 %0(i32 noundef %23, ptr noundef nonnull %3, i32 noundef 1, ptr noundef %1) #10
  %.not46 = icmp eq i32 %24, 0
  call void @llvm.lifetime.end.p0(i64 4, ptr nonnull %4) #10
  br i1 %.not46, label %17, label %.thread87

.thread87:                                        ; preds = %13, %22, %.thread
  %.237.ph = phi i32 [ %21, %.thread ], [ %24, %22 ], [ %16, %13 ]
  call void @llvm.lifetime.end.p0(i64 4, ptr nonnull %3) #10
  br label %.loopexit

._crit_edge:                                      ; preds = %17, %.preheader
  call void @llvm.lifetime.end.p0(i64 4, ptr nonnull %3) #10
  %indvars.iv.next83 = add nuw nsw i64 %indvars.iv82, 1
  %exitcond86.not = icmp eq i64 %indvars.iv.next83, %wide.trip.count85
  br i1 %exitcond86.not, label %._crit_edge70.loopexit, label %13, !llvm.loop !29

._crit_edge70.loopexit:                           ; preds = %._crit_edge
  %.pre = load i32, ptr %10, align 4, !tbaa !17
  br label %25

25:                                               ; preds = %5, %._crit_edge70.loopexit
  %26 = phi i32 [ %.pre, %._crit_edge70.loopexit ], [ %11, %5 ]
  %27 = add nsw i32 %.03810, 4
  %28 = add i32 %27, %26
  %29 = icmp slt i32 %28, 72
  br i1 %29, label %5, label %.loopexit, !llvm.loop !30

.loopexit:                                        ; preds = %25, %.thread87
  %.6 = phi i32 [ %.237.ph, %.thread87 ], [ 0, %25 ]
  ret i32 %.6
}